target datalayout = "e-m:e-p270:32:32-p271:32:32-p272:64:64-i64:64-i128:128-f80:128-n8:16:32:64-S128"
target triple = "x86_64-pc-linux-gnu"

%struct._Node = type { %union.anon }
%union.anon = type { %struct.StrNode }
%struct.StrNode = type { %struct.NodeBase, ptr, ptr, i32, i32, [24 x i8] }
%struct.NodeBase = type { i32 }

; Function Attrs: alwaysinline nounwind
define internal ptr @memcpy.inline(ptr noalias nonnull %0, ptr noalias nonnull %1, i64 %2) #2 {
  %4 = alloca ptr, align 8
  %5 = alloca ptr, align 8
  %6 = alloca i64, align 8
  store ptr %0, ptr %4, align 8, !tbaa !12
  store ptr %1, ptr %5, align 8, !tbaa !12
  store i64 %2, ptr %6, align 8, !tbaa !15
  %7 = load ptr, ptr %4, align 8, !tbaa !12
  %8 = load ptr, ptr %5, align 8, !tbaa !12
  %9 = load i64, ptr %6, align 8, !tbaa !15
  %10 = load ptr, ptr %4, align 8, !tbaa !12
  %11 = call i64 @llvm.objectsize.i64.p0(ptr %10, i1 false, i1 true, i1 false)
  %12 = call ptr @__memcpy_chk(ptr noundef %7, ptr noundef %8, i64 noundef %9, i64 noundef %11) #13
  ret ptr %12
}

; Function Attrs: nounwind sspstrong uwtable
define internal ptr @strcat_capa(ptr noundef %0, ptr noundef %1, ptr noundef %2, ptr noundef %3, i64 noundef %4) #0 {
  %6 = alloca ptr, align 8
  %7 = alloca ptr, align 8
  %8 = alloca ptr, align 8
  %9 = alloca ptr, align 8
  %10 = alloca ptr, align 8
  %11 = alloca i64, align 8
  %12 = alloca ptr, align 8
  %13 = alloca i32, align 4
  store ptr %0, ptr %7, align 8, !tbaa !7
  store ptr %1, ptr %8, align 8, !tbaa !7
  store ptr %2, ptr %9, align 8, !tbaa !7
  store ptr %3, ptr %10, align 8, !tbaa !7
  store i64 %4, ptr %11, align 8, !tbaa !15
  call void @llvm.lifetime.start.p0(i64 8, ptr %12) #13
  %14 = load ptr, ptr %7, align 8, !tbaa !7
  %15 = icmp ne ptr %14, null
  br i1 %15, label %16, label %21

16:                                               ; preds = %5
  %17 = load ptr, ptr %7, align 8, !tbaa !7
  %18 = load i64, ptr %11, align 8, !tbaa !15
  %19 = add i64 %18, 1
  %20 = call ptr @realloc(ptr noundef %17, i64 noundef %19) #15
  store ptr %20, ptr %12, align 8, !tbaa !7
  br label %25

21:                                               ; preds = %5
  %22 = load i64, ptr %11, align 8, !tbaa !15
  %23 = add i64 %22, 1
  %24 = call noalias ptr @malloc(i64 noundef %23) #14
  store ptr %24, ptr %12, align 8, !tbaa !7
  br label %25

25:                                               ; preds = %21, %16
  %26 = load ptr, ptr %12, align 8, !tbaa !7
  %27 = icmp eq ptr %26, null
  br i1 %27, label %28, label %29

28:                                               ; preds = %25
  store ptr null, ptr %6, align 8
  store i32 1, ptr %13, align 4
  br label %40

29:                                               ; preds = %25
  %30 = load ptr, ptr %12, align 8, !tbaa !7
  %31 = load ptr, ptr %8, align 8, !tbaa !7
  %32 = load ptr, ptr %7, align 8, !tbaa !7
  %33 = ptrtoint ptr %31 to i64
  %34 = ptrtoint ptr %32 to i64
  %35 = sub i64 %33, %34
  %36 = getelementptr i8, ptr %30, i64 %35
  %37 = load ptr, ptr %9, align 8, !tbaa !7
  %38 = load ptr, ptr %10, align 8, !tbaa !7
  call void @onig_strcpy(ptr noundef %36, ptr noundef %37, ptr noundef %38)
  %39 = load ptr, ptr %12, align 8, !tbaa !7
  store ptr %39, ptr %6, align 8
  store i32 1, ptr %13, align 4
  br label %40

40:                                               ; preds = %29, %28
  call void @llvm.lifetime.end.p0(i64 8, ptr %12) #13
  %41 = load ptr, ptr %6, align 8
  ret ptr %41
}

; Function Attrs: nounwind sspstrong uwtable
define internal ptr @strcat_capa_from_static(ptr noundef %0, ptr noundef %1, ptr noundef %2, ptr noundef %3, i64 noundef %4) #0 {
  %6 = alloca ptr, align 8
  %7 = alloca ptr, align 8
  %8 = alloca ptr, align 8
  %9 = alloca ptr, align 8
  %10 = alloca ptr, align 8
  %11 = alloca i64, align 8
  %12 = alloca ptr, align 8
  %13 = alloca i32, align 4
  store ptr %0, ptr %7, align 8, !tbaa !7
  store ptr %1, ptr %8, align 8, !tbaa !7
  store ptr %2, ptr %9, align 8, !tbaa !7
  store ptr %3, ptr %10, align 8, !tbaa !7
  store i64 %4, ptr %11, align 8, !tbaa !15
  call void @llvm.lifetime.start.p0(i64 8, ptr %12) #13
  %14 = load i64, ptr %11, align 8, !tbaa !15
  %15 = add i64 %14, 1
  %16 = call noalias ptr @malloc(i64 noundef %15) #14
  store ptr %16, ptr %12, align 8, !tbaa !7
  %17 = load ptr, ptr %12, align 8, !tbaa !7
  %18 = icmp eq ptr %17, null
  br i1 %18, label %19, label %20

19:                                               ; preds = %5
  store ptr null, ptr %6, align 8
  store i32 1, ptr %13, align 4
  br label %34

20:                                               ; preds = %5
  %21 = load ptr, ptr %12, align 8, !tbaa !7
  %22 = load ptr, ptr %7, align 8, !tbaa !7
  %23 = load ptr, ptr %8, align 8, !tbaa !7
  call void @onig_strcpy(ptr noundef %21, ptr noundef %22, ptr noundef %23)
  %24 = load ptr, ptr %12, align 8, !tbaa !7
  %25 = load ptr, ptr %8, align 8, !tbaa !7
  %26 = load ptr, ptr %7, align 8, !tbaa !7
  %27 = ptrtoint ptr %25 to i64
  %28 = ptrtoint ptr %26 to i64
  %29 = sub i64 %27, %28
  %30 = getelementptr i8, ptr %24, i64 %29
  %31 = load ptr, ptr %9, align 8, !tbaa !7
  %32 = load ptr, ptr %10, align 8, !tbaa !7
  call void @onig_strcpy(ptr noundef %30, ptr noundef %31, ptr noundef %32)
  %33 = load ptr, ptr %12, align 8, !tbaa !7
  store ptr %33, ptr %6, align 8
  store i32 1, ptr %13, align 4
  br label %34

34:                                               ; preds = %20, %19
  call void @llvm.lifetime.end.p0(i64 8, ptr %12) #13
  %35 = load ptr, ptr %6, align 8
  ret ptr %35
}

; Function Attrs: nounwind sspstrong uwtable
define dso_local void @onig_strcpy(ptr noundef %0, ptr noundef %1, ptr noundef %2) #0 {
  %4 = alloca ptr, align 8
  %5 = alloca ptr, align 8
  %6 = alloca ptr, align 8
  %7 = alloca i64, align 8
  store ptr %0, ptr %4, align 8, !tbaa !7
  store ptr %1, ptr %5, align 8, !tbaa !7
  store ptr %2, ptr %6, align 8, !tbaa !7
  call void @llvm.lifetime.start.p0(i64 8, ptr %7) #13
  %8 = load ptr, ptr %6, align 8, !tbaa !7
  %9 = load ptr, ptr %5, align 8, !tbaa !7
  %10 = ptrtoint ptr %8 to i64
  %11 = ptrtoint ptr %9 to i64
  %12 = sub i64 %10, %11
  store i64 %12, ptr %7, align 8, !tbaa !15
  %13 = load i64, ptr %7, align 8, !tbaa !15
  %14 = icmp sgt i64 %13, 0
  br i1 %14, label %15, label %23

15:                                               ; preds = %3
  %16 = load ptr, ptr %4, align 8, !tbaa !7
  %17 = load ptr, ptr %5, align 8, !tbaa !7
  %18 = load i64, ptr %7, align 8, !tbaa !15
  %19 = call ptr @memcpy.inline(ptr noundef %16, ptr noundef %17, i64 noundef %18) #13
  %20 = load ptr, ptr %4, align 8, !tbaa !7
  %21 = load i64, ptr %7, align 8, !tbaa !15
  %22 = getelementptr i8, ptr %20, i64 %21
  store i8 0, ptr %22, align 1, !tbaa !17
  br label %23

23:                                               ; preds = %15, %3
  call void @llvm.lifetime.end.p0(i64 8, ptr %7) #13
  ret void
}

; Function Attrs: nounwind sspstrong uwtable
define dso_local i32 @onig_node_str_cat(ptr noundef %0, ptr noundef %1, ptr noundef %2) #0 {
  %4 = alloca i32, align 4
  %5 = alloca ptr, align 8
  %6 = alloca ptr, align 8
  %7 = alloca ptr, align 8
  %8 = alloca i64, align 8
  %9 = alloca i64, align 8
  %10 = alloca ptr, align 8
  %11 = alloca i64, align 8
  %12 = alloca i32, align 4
  store ptr %0, ptr %5, align 8, !tbaa !68
  store ptr %1, ptr %6, align 8, !tbaa !7
  store ptr %2, ptr %7, align 8, !tbaa !7
  call void @llvm.lifetime.start.p0(i64 8, ptr %8) #13
  %13 = load ptr, ptr %7, align 8, !tbaa !7
  %14 = load ptr, ptr %6, align 8, !tbaa !7
  %15 = ptrtoint ptr %13 to i64
  %16 = ptrtoint ptr %14 to i64
  %17 = sub i64 %15, %16
  store i64 %17, ptr %8, align 8, !tbaa !15
  %18 = load i64, ptr %8, align 8, !tbaa !15
  %19 = icmp sgt i64 %18, 0
  br i1 %19, label %20, label %141

20:                                               ; preds = %3
  call void @llvm.lifetime.start.p0(i64 8, ptr %9) #13
  %21 = load ptr, ptr %5, align 8, !tbaa !68
  %22 = getelementptr inbounds nuw %struct._Node, ptr %21, i32 0, i32 0
  %23 = getelementptr inbounds nuw %struct.StrNode, ptr %22, i32 0, i32 2
  %24 = load ptr, ptr %23, align 8, !tbaa !17
  %25 = load ptr, ptr %5, align 8, !tbaa !68
  %26 = getelementptr inbounds nuw %struct._Node, ptr %25, i32 0, i32 0
  %27 = getelementptr inbounds nuw %struct.StrNode, ptr %26, i32 0, i32 1
  %28 = load ptr, ptr %27, align 8, !tbaa !17
  %29 = ptrtoint ptr %24 to i64
  %30 = ptrtoint ptr %28 to i64
  %31 = sub i64 %29, %30
  store i64 %31, ptr %9, align 8, !tbaa !15
  %32 = load ptr, ptr %5, align 8, !tbaa !68
  %33 = getelementptr inbounds nuw %struct._Node, ptr %32, i32 0, i32 0
  %34 = getelementptr inbounds nuw %struct.StrNode, ptr %33, i32 0, i32 4
  %35 = load i32, ptr %34, align 4, !tbaa !17
  %36 = icmp sgt i32 %35, 0
  br i1 %36, label %42, label %37

37:                                               ; preds = %20
  %38 = load i64, ptr %9, align 8, !tbaa !15
  %39 = load i64, ptr %8, align 8, !tbaa !15
  %40 = add i64 %38, %39
  %41 = icmp sgt i64 %40, 23
  br i1 %41, label %42, label %117

42:                                               ; preds = %37, %20
  call void @llvm.lifetime.start.p0(i64 8, ptr %10) #13
  call void @llvm.lifetime.start.p0(i64 8, ptr %11) #13
  %43 = load i64, ptr %9, align 8, !tbaa !15
  %44 = load i64, ptr %8, align 8, !tbaa !15
  %45 = add i64 %43, %44
  %46 = add i64 %45, 16
  store i64 %46, ptr %11, align 8, !tbaa !15
  %47 = load i64, ptr %11, align 8, !tbaa !15
  %48 = load ptr, ptr %5, align 8, !tbaa !68
  %49 = getelementptr inbounds nuw %struct._Node, ptr %48, i32 0, i32 0
  %50 = getelementptr inbounds nuw %struct.StrNode, ptr %49, i32 0, i32 4
  %51 = load i32, ptr %50, align 4, !tbaa !17
  %52 = sext i32 %51 to i64
  %53 = icmp sle i64 %47, %52
  br i1 %53, label %54, label %63

54:                                               ; preds = %42
  %55 = load ptr, ptr %5, align 8, !tbaa !68
  %56 = getelementptr inbounds nuw %struct._Node, ptr %55, i32 0, i32 0
  %57 = getelementptr inbounds nuw %struct.StrNode, ptr %56, i32 0, i32 1
  %58 = load ptr, ptr %57, align 8, !tbaa !17
  %59 = load i64, ptr %9, align 8, !tbaa !15
  %60 = getelementptr i8, ptr %58, i64 %59
  %61 = load ptr, ptr %6, align 8, !tbaa !7
  %62 = load ptr, ptr %7, align 8, !tbaa !7
  call void @onig_strcpy(ptr noundef %60, ptr noundef %61, ptr noundef %62)
  br label %113

63:                                               ; preds = %42
  %64 = load ptr, ptr %5, align 8, !tbaa !68
  %65 = getelementptr inbounds nuw %struct._Node, ptr %64, i32 0, i32 0
  %66 = getelementptr inbounds nuw %struct.StrNode, ptr %65, i32 0, i32 1
  %67 = load ptr, ptr %66, align 8, !tbaa !17
  %68 = load ptr, ptr %5, align 8, !tbaa !68
  %69 = getelementptr inbounds nuw %struct._Node, ptr %68, i32 0, i32 0
  %70 = getelementptr inbounds nuw %struct.StrNode, ptr %69, i32 0, i32 5
  %71 = getelementptr inbounds [24 x i8], ptr %70, i64 0, i64 0
  %72 = icmp eq ptr %67, %71
  br i1 %72, label %73, label %86

73:                                               ; preds = %63
  %74 = load ptr, ptr %5, align 8, !tbaa !68
  %75 = getelementptr inbounds nuw %struct._Node, ptr %74, i32 0, i32 0
  %76 = getelementptr inbounds nuw %struct.StrNode, ptr %75, i32 0, i32 1
  %77 = load ptr, ptr %76, align 8, !tbaa !17
  %78 = load ptr, ptr %5, align 8, !tbaa !68
  %79 = getelementptr inbounds nuw %struct._Node, ptr %78, i32 0, i32 0
  %80 = getelementptr inbounds nuw %struct.StrNode, ptr %79, i32 0, i32 2
  %81 = load ptr, ptr %80, align 8, !tbaa !17
  %82 = load ptr, ptr %6, align 8, !tbaa !7
  %83 = load ptr, ptr %7, align 8, !tbaa !7
  %84 = load i64, ptr %11, align 8, !tbaa !15
  %85 = call ptr @strcat_capa_from_static(ptr noundef %77, ptr noundef %81, ptr noundef %82, ptr noundef %83, i64 noundef %84)
  store ptr %85, ptr %10, align 8, !tbaa !7
  br label %99

86:                                               ; preds = %63
  %87 = load ptr, ptr %5, align 8, !tbaa !68
  %88 = getelementptr inbounds nuw %struct._Node, ptr %87, i32 0, i32 0
  %89 = getelementptr inbounds nuw %struct.StrNode, ptr %88, i32 0, i32 1
  %90 = load ptr, ptr %89, align 8, !tbaa !17
  %91 = load ptr, ptr %5, align 8, !tbaa !68
  %92 = getelementptr inbounds nuw %struct._Node, ptr %91, i32 0, i32 0
  %93 = getelementptr inbounds nuw %struct.StrNode, ptr %92, i32 0, i32 2
  %94 = load ptr, ptr %93, align 8, !tbaa !17
  %95 = load ptr, ptr %6, align 8, !tbaa !7
  %96 = load ptr, ptr %7, align 8, !tbaa !7
  %97 = load i64, ptr %11, align 8, !tbaa !15
  %98 = call ptr @strcat_capa(ptr noundef %90, ptr noundef %94, ptr noundef %95, ptr noundef %96, i64 noundef %97)
  store ptr %98, ptr %10, align 8, !tbaa !7
  br label %99

99:                                               ; preds = %86, %73
  %100 = load ptr, ptr %10, align 8, !tbaa !7
  %101 = icmp eq ptr %100, null
  br i1 %101, label %102, label %103

102:                                              ; preds = %99
  store i32 -5, ptr %4, align 4
  store i32 1, ptr %12, align 4
  br label %114

103:                                              ; preds = %99
  %104 = load ptr, ptr %10, align 8, !tbaa !7
  %105 = load ptr, ptr %5, align 8, !tbaa !68
  %106 = getelementptr inbounds nuw %struct._Node, ptr %105, i32 0, i32 0
  %107 = getelementptr inbounds nuw %struct.StrNode, ptr %106, i32 0, i32 1
  store ptr %104, ptr %107, align 8, !tbaa !17
  %108 = load i64, ptr %11, align 8, !tbaa !15
  %109 = trunc i64 %108 to i32
  %110 = load ptr, ptr %5, align 8, !tbaa !68
  %111 = getelementptr inbounds nuw %struct._Node, ptr %110, i32 0, i32 0
  %112 = getelementptr inbounds nuw %struct.StrNode, ptr %111, i32 0, i32 4
  store i32 %109, ptr %112, align 4, !tbaa !17
  br label %113

113:                                              ; preds = %103, %54
  store i32 0, ptr %12, align 4
  br label %114

114:                                              ; preds = %113, %102
  call void @llvm.lifetime.end.p0(i64 8, ptr %11) #13
  call void @llvm.lifetime.end.p0(i64 8, ptr %10) #13
  %115 = load i32, ptr %12, align 4
  switch i32 %115, label %138 [
    i32 0, label %116
  ]

116:                                              ; preds = %114
  br label %126

117:                                              ; preds = %37
  %118 = load ptr, ptr %5, align 8, !tbaa !68
  %119 = getelementptr inbounds nuw %struct._Node, ptr %118, i32 0, i32 0
  %120 = getelementptr inbounds nuw %struct.StrNode, ptr %119, i32 0, i32 1
  %121 = load ptr, ptr %120, align 8, !tbaa !17
  %122 = load i64, ptr %9, align 8, !tbaa !15
  %123 = getelementptr i8, ptr %121, i64 %122
  %124 = load ptr, ptr %6, align 8, !tbaa !7
  %125 = load ptr, ptr %7, align 8, !tbaa !7
  call void @onig_strcpy(ptr noundef %123, ptr noundef %124, ptr noundef %125)
  br label %126

126:                                              ; preds = %117, %116
  %127 = load ptr, ptr %5, align 8, !tbaa !68
  %128 = getelementptr inbounds nuw %struct._Node, ptr %127, i32 0, i32 0
  %129 = getelementptr inbounds nuw %struct.StrNode, ptr %128, i32 0, i32 1
  %130 = load ptr, ptr %129, align 8, !tbaa !17
  %131 = load i64, ptr %9, align 8, !tbaa !15
  %132 = getelementptr i8, ptr %130, i64 %131
  %133 = load i64, ptr %8, align 8, !tbaa !15
  %134 = getelementptr i8, ptr %132, i64 %133
  %135 = load ptr, ptr %5, align 8, !tbaa !68
  %136 = getelementptr inbounds nuw %struct._Node, ptr %135, i32 0, i32 0
  %137 = getelementptr inbounds nuw %struct.StrNode, ptr %136, i32 0, i32 2
  store ptr %134, ptr %137, align 8, !tbaa !17
  store i32 0, ptr %12, align 4
  br label %138

138:                                              ; preds = %126, %114
  call void @llvm.lifetime.end.p0(i64 8, ptr %9) #13
  %139 = load i32, ptr %12, align 4
  switch i32 %139, label %142 [
    i32 0, label %140
  ]

140:                                              ; preds = %138
  br label %141

141:                                              ; preds = %140, %3
  store i32 0, ptr %4, align 4
  store i32 1, ptr %12, align 4
  br label %142

142:                                              ; preds = %141, %138
  call void @llvm.lifetime.end.p0(i64 8, ptr %8) #13
  %143 = load i32, ptr %4, align 4
  ret i32 %143
}