; Function Attrs: nounwind sspstrong uwtable
define dso_local range(i32 -5, 1) i32 @onig_node_str_cat(ptr noundef captures(address) %0, ptr noundef %1, ptr noundef %2) local_unnamed_addr #5 {
  %4 = ptrtoint ptr %2 to i64
  %5 = ptrtoint ptr %1 to i64
  %6 = sub i64 %4, %5
  %7 = icmp sgt i64 %6, 0
  br i1 %7, label %8, label %.critedge

8:                                                ; preds = %3
  %9 = getelementptr inbounds nuw i8, ptr %0, i64 16
  %10 = load ptr, ptr %9, align 8, !tbaa !13
  %11 = getelementptr inbounds nuw i8, ptr %0, i64 8
  %12 = load ptr, ptr %11, align 8, !tbaa !13
  %13 = ptrtoint ptr %10 to i64
  %14 = ptrtoint ptr %12 to i64
  %15 = sub i64 %13, %14
  %16 = getelementptr inbounds nuw i8, ptr %0, i64 28
  %17 = load i32, ptr %16, align 4, !tbaa !13
  %18 = icmp sgt i32 %17, 0
  %19 = add i64 %15, %6
  %20 = icmp sgt i64 %19, 23
  %or.cond = select i1 %18, i1 true, i1 %20
  br i1 %or.cond, label %21, label %onig_strcpy.exit54

21:                                               ; preds = %8
  %22 = add i64 %19, 16
  %23 = sext i32 %17 to i64
  %.not = icmp sgt i64 %22, %23
  br i1 %.not, label %26, label %onig_strcpy.exit

onig_strcpy.exit:                                 ; preds = %21
  %24 = getelementptr i8, ptr %12, i64 %15
  tail call void @llvm.memcpy.p0.p0.i64(ptr noundef nonnull align 1 %24, ptr noundef nonnull align 1 %1, i64 noundef %6, i1 noundef false) #25
  %25 = getelementptr i8, ptr %24, i64 %6
  store i8 0, ptr %25, align 1, !tbaa !13
  br label %.critedge52

26:                                               ; preds = %21
  %27 = getelementptr inbounds nuw i8, ptr %0, i64 32
  %28 = icmp eq ptr %12, %27
  br i1 %28, label %29, label %37

29:                                               ; preds = %26
  %30 = add i64 %19, 17
  %31 = tail call noalias ptr @malloc(i64 noundef %30) #26
  %32 = icmp eq ptr %31, null
  br i1 %32, label %.critedge, label %33

33:                                               ; preds = %29
  %34 = icmp sgt i64 %15, 0
  br i1 %34, label %35, label %strcat_capa_from_static.exit

35:                                               ; preds = %33
  tail call void @llvm.memcpy.p0.p0.i64(ptr noundef nonnull align 1 %31, ptr noundef nonnull align 1 %12, i64 noundef %15, i1 noundef false) #25
  %36 = getelementptr i8, ptr %31, i64 %15
  store i8 0, ptr %36, align 1, !tbaa !13
  br label %strcat_capa_from_static.exit

37:                                               ; preds = %26
  %.not.i = icmp eq ptr %12, null
  %38 = add i64 %19, 17
  br i1 %.not.i, label %41, label %39

39:                                               ; preds = %37
  %40 = tail call ptr @realloc(ptr noundef nonnull %12, i64 noundef %38) #27
  br label %43

41:                                               ; preds = %37
  %42 = tail call noalias ptr @malloc(i64 noundef %38) #26
  br label %43

43:                                               ; preds = %41, %39
  %.0.i = phi ptr [ %40, %39 ], [ %42, %41 ]
  %44 = icmp eq ptr %.0.i, null
  br i1 %44, label %.critedge, label %strcat_capa_from_static.exit

strcat_capa_from_static.exit:                     ; preds = %43, %35, %33
  %.sink59 = phi ptr [ %31, %33 ], [ %31, %35 ], [ %.0.i, %43 ]
  %45 = getelementptr i8, ptr %.sink59, i64 %15
  tail call void @llvm.memcpy.p0.p0.i64(ptr noundef nonnull align 1 %45, ptr noundef nonnull align 1 %1, i64 noundef %6, i1 noundef false) #25
  %46 = getelementptr i8, ptr %45, i64 %6
  store i8 0, ptr %46, align 1, !tbaa !13
  store ptr %.sink59, ptr %11, align 8, !tbaa !13
  %47 = trunc i64 %22 to i32
  store i32 %47, ptr %16, align 4, !tbaa !13
  br label %.critedge52

onig_strcpy.exit54:                               ; preds = %8
  %48 = getelementptr i8, ptr %12, i64 %15
  tail call void @llvm.memcpy.p0.p0.i64(ptr noundef nonnull align 1 %48, ptr noundef nonnull align 1 %1, i64 noundef %6, i1 noundef false) #25
  %49 = getelementptr i8, ptr %48, i64 %6
  store i8 0, ptr %49, align 1, !tbaa !13
  br label %.critedge52

.critedge52:                                      ; preds = %strcat_capa_from_static.exit, %onig_strcpy.exit, %onig_strcpy.exit54
  %50 = load ptr, ptr %11, align 8, !tbaa !13
  %51 = getelementptr i8, ptr %50, i64 %15
  %52 = getelementptr i8, ptr %51, i64 %6
  store ptr %52, ptr %9, align 8, !tbaa !13
  br label %.critedge

.critedge:                                        ; preds = %43, %29, %3, %.critedge52
  %.3 = phi i32 [ 0, %.critedge52 ], [ 0, %3 ], [ -5, %29 ], [ -5, %43 ]
  ret i32 %.3
}